EXPORTS
	??0skExecutable@@QAE@XZ @ 1 NONAME ; skExecutable::skExecutable(void)
	??0skInputFile@@QAE@ABVskString@@@Z @ 2 NONAME ; skInputFile::skInputFile(class skString const &)
	??0skInputFile@@QAE@XZ @ 3 NONAME ; skInputFile::skInputFile(void)
	??0skInputString@@QAE@ABVskString@@@Z @ 4 NONAME ; skInputString::skInputString(class skString const &)
	??0skInterpreter@@QAE@XZ @ 5 NONAME ; skInterpreter::skInterpreter(void)
	??0skOutputFile@@QAE@ABVskString@@@Z @ 6 NONAME ; skOutputFile::skOutputFile(class skString const &)
	??0skOutputString@@QAE@AAVskStringBuffer@@@Z @ 7 NONAME ; skOutputString::skOutputString(class skStringBuffer &)
	??0skRValue@@QAE@ABV0@@Z @ 8 NONAME ; skRValue::skRValue(class skRValue const &)
	??0skTreeNode@@QAE@ABVskString@@H@Z @ 9 NONAME ; skTreeNode::skTreeNode(class skString const &, int)
	??0skTreeNode@@QAE@ABVskString@@M@Z @ 10 NONAME ; skTreeNode::skTreeNode(class skString const &, float)
	??0skTreeNode@@QAE@ABVskString@@_N@Z @ 11 NONAME ; skTreeNode::skTreeNode(class skString const &, bool)
	??0skTreeNodeList@@QAE@XZ @ 12 NONAME ; skTreeNodeList::skTreeNodeList(void)
	??0skTreeNodeListIterator@@QAE@ABVskTreeNode@@@Z @ 13 NONAME ; skTreeNodeListIterator::skTreeNodeListIterator(class skTreeNode const &)
	??0skTreeNodeObject@@AAE@ABV0@@Z @ 14 NONAME ; skTreeNodeObject::skTreeNodeObject(class skTreeNodeObject const &)
	??0skTreeNodeObject@@QAE@ABVskString@@PAVskTreeNode@@_N@Z @ 15 NONAME ; skTreeNodeObject::skTreeNodeObject(class skString const &, class skTreeNode *, bool)
	??0skTreeNodeObject@@QAE@XZ @ 16 NONAME ; skTreeNodeObject::skTreeNodeObject(void)
	??0skTreeNodeObjectEnumerator@@QAE@PAVskTreeNodeObject@@ABVskString@@1@Z @ 17 NONAME ; skTreeNodeObjectEnumerator::skTreeNodeObjectEnumerator(class skTreeNodeObject *, class skString const &, class skString const &)
	??0skTreeNodeObjectEnumerator@@QAE@PAVskTreeNodeObject@@ABVskString@@@Z @ 18 NONAME ; skTreeNodeObjectEnumerator::skTreeNodeObjectEnumerator(class skTreeNodeObject *, class skString const &)
	??0skTreeNodeReader@@QAE@AAVskInputSource@@ABVskString@@@Z @ 19 NONAME ; skTreeNodeReader::skTreeNodeReader(class skInputSource &, class skString const &)
	??0skTreeNodeReader@@QAE@XZ @ 20 NONAME ; skTreeNodeReader::skTreeNodeReader(void)
	??1skExecutable@@UAE@XZ @ 21 NONAME ; skExecutable::~skExecutable(void)
	??1skInputString@@UAE@XZ @ 22 NONAME ; skInputString::~skInputString(void)
	??1skInterpreter@@UAE@XZ @ 23 NONAME ; skInterpreter::~skInterpreter(void)
	??1skOutputFile@@UAE@XZ @ 24 NONAME ; skOutputFile::~skOutputFile(void)
	??1skOutputString@@UAE@XZ @ 25 NONAME ; skOutputString::~skOutputString(void)
	??1skStringBuffer@@UAE@XZ @ 26 NONAME ; skStringBuffer::~skStringBuffer(void)
	??1skTreeNodeObject@@UAE@XZ @ 27 NONAME ; skTreeNodeObject::~skTreeNodeObject(void)
	??1skTreeNodeReader@@UAE@XZ @ 28 NONAME ; skTreeNodeReader::~skTreeNodeReader(void)
	??4skRValue@@QAEAAV0@ABV0@@Z @ 29 NONAME ; class skRValue & skRValue::operator=(class skRValue const &)
	??4skRValue@@QAEAAV0@_N@Z @ 30 NONAME ; class skRValue & skRValue::operator=(bool)
	??4skString@@QAEAAV0@G@Z @ 31 NONAME ; class skString & skString::operator=(unsigned short)
	??4skString@@QAEAAV0@PBG@Z @ 32 NONAME ; class skString & skString::operator=(unsigned short const *)
	??4skStringBuffer@@QAEAAV0@ABV0@@Z @ 33 NONAME ; class skStringBuffer & skStringBuffer::operator=(class skStringBuffer const &)
	??4skTreeNode@@QAEAAV0@ABV0@@Z @ 34 NONAME ; class skTreeNode & skTreeNode::operator=(class skTreeNode const &)
	??4skTreeNodeList@@QAEAAV0@ABV0@@Z @ 35 NONAME ; class skTreeNodeList & skTreeNodeList::operator=(class skTreeNodeList const &)
	??4skTreeNodeObject@@AAEAAV0@ABV0@@Z @ 36 NONAME ; class skTreeNodeObject & skTreeNodeObject::operator=(class skTreeNodeObject const &)
	??8skRValue@@QAE_NABV0@@Z @ 37 NONAME ; bool skRValue::operator==(class skRValue const &)
	??8skTreeNode@@QBE_NABV0@@Z @ 38 NONAME ; bool skTreeNode::operator==(class skTreeNode const &) const
	??9skString@@QBE_NABV0@@Z @ 39 NONAME ; bool skString::operator!=(class skString const &) const
	??9skString@@QBE_NPBG@Z @ 40 NONAME ; bool skString::operator!=(unsigned short const *) const
	??BskStringBuffer@@QBEPBGXZ @ 41 NONAME ; skStringBuffer::operator unsigned short const *(void) const
	??H@YA?AVskString@@ABVTDesC16@@ABV0@@Z @ 42 NONAME ; class skString operator+(class TDesC16 const &, class skString const &)
	??H@YA?AVskString@@PBGABV0@@Z @ 43 NONAME ; class skString operator+(unsigned short const *, class skString const &)
	??HskString@@QBE?AV0@ABV0@@Z @ 44 NONAME ; class skString skString::operator+(class skString const &) const
	??RskSHashTableIterator@@QAEHXZ @ 45 NONAME ; int skSHashTableIterator::operator()(void)
	??RskTreeNodeListIterator@@QAEPAVskTreeNode@@XZ @ 46 NONAME ; class skTreeNode * skTreeNodeListIterator::operator()(void)
	??YskString@@QAEAAV0@ABV0@@Z @ 47 NONAME ; class skString & skString::operator+=(class skString const &)
	?addChild@skTreeNode@@QAEXPAV1@@Z @ 48 NONAME ; void skTreeNode::addChild(class skTreeNode *)
	?addGlobalVariable@skInterpreter@@QAEXABVTDesC16@@ABVskRValue@@@Z @ 49 NONAME ; void skInterpreter::addGlobalVariable(class TDesC16 const &, class skRValue const &)
	?addGlobalVariable@skInterpreter@@QAEXABVskString@@ABVskRValue@@@Z @ 50 NONAME ; void skInterpreter::addGlobalVariable(class skString const &, class skRValue const &)
	?addStrings@skString@@SA?AV1@ABV1@0000000@Z @ 51 NONAME ; class skString skString::addStrings(class skString const &, class skString const &, class skString const &, class skString const &, class skString const &, class skString const &, class skString const &, class skString const &)
	?addStrings@skString@@SA?AV1@ABV1@000000@Z @ 52 NONAME ; class skString skString::addStrings(class skString const &, class skString const &, class skString const &, class skString const &, class skString const &, class skString const &, class skString const &)
	?addStrings@skString@@SA?AV1@ABV1@00000@Z @ 53 NONAME ; class skString skString::addStrings(class skString const &, class skString const &, class skString const &, class skString const &, class skString const &, class skString const &)
	?addStrings@skString@@SA?AV1@ABV1@0000@Z @ 54 NONAME ; class skString skString::addStrings(class skString const &, class skString const &, class skString const &, class skString const &, class skString const &)
	?addStrings@skString@@SA?AV1@ABV1@000@Z @ 55 NONAME ; class skString skString::addStrings(class skString const &, class skString const &, class skString const &, class skString const &)
	?addStrings@skString@@SA?AV1@ABV1@00@Z @ 56 NONAME ; class skString skString::addStrings(class skString const &, class skString const &, class skString const &)
	?addStrings@skString@@SA?AV1@ABV1@0@Z @ 57 NONAME ; class skString skString::addStrings(class skString const &, class skString const &)
	?addStrings@skString@@SA?AV1@ABVTDesC16@@0000000@Z @ 58 NONAME ; class skString skString::addStrings(class TDesC16 const &, class TDesC16 const &, class TDesC16 const &, class TDesC16 const &, class TDesC16 const &, class TDesC16 const &, class TDesC16 const &, class TDesC16 const &)
	?addStrings@skString@@SA?AV1@ABVTDesC16@@000000@Z @ 59 NONAME ; class skString skString::addStrings(class TDesC16 const &, class TDesC16 const &, class TDesC16 const &, class TDesC16 const &, class TDesC16 const &, class TDesC16 const &, class TDesC16 const &)
	?addStrings@skString@@SA?AV1@ABVTDesC16@@00000@Z @ 60 NONAME ; class skString skString::addStrings(class TDesC16 const &, class TDesC16 const &, class TDesC16 const &, class TDesC16 const &, class TDesC16 const &, class TDesC16 const &)
	?addStrings@skString@@SA?AV1@ABVTDesC16@@0000@Z @ 61 NONAME ; class skString skString::addStrings(class TDesC16 const &, class TDesC16 const &, class TDesC16 const &, class TDesC16 const &, class TDesC16 const &)
	?addStrings@skString@@SA?AV1@ABVTDesC16@@000@Z @ 62 NONAME ; class skString skString::addStrings(class TDesC16 const &, class TDesC16 const &, class TDesC16 const &, class TDesC16 const &)
	?addStrings@skString@@SA?AV1@ABVTDesC16@@00@Z @ 63 NONAME ; class skString skString::addStrings(class TDesC16 const &, class TDesC16 const &, class TDesC16 const &)
	?addStrings@skString@@SA?AV1@ABVTDesC16@@0@Z @ 64 NONAME ; class skString skString::addStrings(class TDesC16 const &, class TDesC16 const &)
	?append@skStringBuffer@@QAEXABVTDesC16@@@Z @ 65 NONAME ; void skStringBuffer::append(class TDesC16 const &)
	?append@skStringBuffer@@QAEXABVskString@@@Z @ 66 NONAME ; void skStringBuffer::append(class skString const &)
	?append@skStringBuffer@@QAEXG@Z @ 67 NONAME ; void skStringBuffer::append(unsigned short)
	?append@skStringBuffer@@QAEXPBG@Z @ 68 NONAME ; void skStringBuffer::append(unsigned short const *)
	?assign@skString@@IAEXPBGH@Z @ 69 NONAME ; void skString::assign(unsigned short const *, int)
	?boolData@skTreeNode@@QAEX_N@Z @ 70 NONAME ; void skTreeNode::boolData(bool)
	?boolData@skTreeNode@@QBE_NXZ @ 71 NONAME ; bool skTreeNode::boolData(void) const
	?boolValue@skExecutable@@UBE_NXZ @ 72 NONAME ; bool skExecutable::boolValue(void) const
	?boolValue@skRValue@@QBE_NXZ @ 73 NONAME ; bool skRValue::boolValue(void) const
	?boolValue@skTreeNodeObject@@UBE_NXZ @ 74 NONAME ; bool skTreeNodeObject::boolValue(void) const
	?charValue@skExecutable@@UBEGXZ @ 75 NONAME ; unsigned short skExecutable::charValue(void) const
	?charValue@skRValue@@QBEGXZ @ 76 NONAME ; unsigned short skRValue::charValue(void) const
	?charValue@skTreeNodeObject@@UBEGXZ @ 77 NONAME ; unsigned short skTreeNodeObject::charValue(void) const
	?clear@skSHashTable@@QAEXXZ @ 78 NONAME ; void skSHashTable::clear(void)
	?clear@skTreeNode@@QAEXXZ @ 79 NONAME ; void skTreeNode::clear(void)
	?clear@skTreeNodeReader@@QAEXXZ @ 80 NONAME ; void skTreeNodeReader::clear(void)
	?clearAndDestroy@skSHashTable@@QAEXXZ @ 81 NONAME ; void skSHashTable::clearAndDestroy(void)
	?clearAndDestroyValues@skSHashTable@@QAEXXZ @ 82 NONAME ; void skSHashTable::clearAndDestroyValues(void)
	?containsChild@skTreeNode@@QAE_NPAV1@@Z @ 83 NONAME ; bool skTreeNode::containsChild(class skTreeNode *)
	?copyItems@skTreeNode@@QAEXAAV1@@Z @ 84 NONAME ; void skTreeNode::copyItems(class skTreeNode &)
	?countTokens@skStringTokenizer@@QAEHXZ @ 85 NONAME ; int skStringTokenizer::countTokens(void)
	?createIterator@skExecutable@@UAEPAVskExecutableIterator@@ABVskString@@@Z @ 86 NONAME ; class skExecutableIterator * skExecutable::createIterator(class skString const &)
	?createIterator@skExecutable@@UAEPAVskExecutableIterator@@XZ @ 87 NONAME ; class skExecutableIterator * skExecutable::createIterator(void)
	?createIterator@skTreeNodeObject@@UAEPAVskExecutableIterator@@ABVskString@@@Z @ 88 NONAME ; class skExecutableIterator * skTreeNodeObject::createIterator(class skString const &)
	?createIterator@skTreeNodeObject@@UAEPAVskExecutableIterator@@XZ @ 89 NONAME ; class skExecutableIterator * skTreeNodeObject::createIterator(void)
	?createTreeNodeObject@skTreeNodeObject@@MAEPAV1@ABVskString@@PAVskTreeNode@@_N@Z @ 90 NONAME ; class skTreeNodeObject * skTreeNodeObject::createTreeNodeObject(class skString const &, class skTreeNode *, bool)
	?deepCompare@skTreeNode@@QBE_NABV1@_N@Z @ 91 NONAME ; bool skTreeNode::deepCompare(class skTreeNode const &, bool) const
	?del@skSHashTable@@QAEXABVskString@@@Z @ 92 NONAME ; void skSHashTable::del(class skString const &)
	?deleteChild@skTreeNode@@QAEXPAV1@@Z @ 93 NONAME ; void skTreeNode::deleteChild(class skTreeNode *)
	?ensureCapacity@skStringBuffer@@AAEXI@Z @ 94 NONAME ; void skStringBuffer::ensureCapacity(unsigned int)
	?equals@skExecutable@@UBE_NPBVskiExecutable@@@Z @ 95 NONAME ; bool skExecutable::equals(class skiExecutable const *) const
	?equals@skTreeNodeObject@@UBE_NPBVskiExecutable@@@Z @ 96 NONAME ; bool skTreeNodeObject::equals(class skiExecutable const *) const
	?equalsIgnoreCase@skString@@QBE_NABV1@@Z @ 97 NONAME ; bool skString::equalsIgnoreCase(class skString const &) const
	?evaluateExpression@skInterpreter@@QAEXABVskString@@PAVskiExecutable@@0AAVskRValueTable@@AAVskRValue@@AAVskExecutableContext@@@Z @ 98 NONAME ; void skInterpreter::evaluateExpression(class skString const &, class skiExecutable *, class skString const &, class skRValueTable &, class skRValue &, class skExecutableContext &)
	?evaluateExpression@skInterpreter@@QAEXABVskString@@PAVskiExecutable@@PAVskExprNode@@AAVskRValueTable@@AAVskRValue@@AAVskExecutableContext@@@Z @ 99 NONAME ; void skInterpreter::evaluateExpression(class skString const &, class skiExecutable *, class skExprNode *, class skRValueTable &, class skRValue &, class skExecutableContext &)
	?executableType@skExecutable@@UBEHXZ @ 100 NONAME ; int skExecutable::executableType(void) const
	?executableType@skTreeNodeObject@@UBEHXZ @ 101 NONAME ; int skTreeNodeObject::executableType(void) const
	?executeParseTree@skInterpreter@@QAEXABVskString@@PAVskiExecutable@@PAVskMethodDefNode@@AAVskRValueArray@@AAVskRValue@@AAVskExecutableContext@@@Z @ 102 NONAME ; void skInterpreter::executeParseTree(class skString const &, class skiExecutable *, class skMethodDefNode *, class skRValueArray &, class skRValue &, class skExecutableContext &)
	?executeString@skInterpreter@@QAEXABVskString@@PAVskiExecutable@@0AAVskRValueArray@@AAVskRValue@@PAPAVskMethodDefNode@@AAVskExecutableContext@@@Z @ 103 NONAME ; void skInterpreter::executeString(class skString const &, class skiExecutable *, class skString const &, class skRValueArray &, class skRValue &, class skMethodDefNode * *, class skExecutableContext &)
	?executeStringExternalParams@skInterpreter@@QAEXABVskString@@PAVskiExecutable@@AAVskStringList@@0AAVskRValueArray@@AAVskRValue@@PAPAVskMethodDefNode@@AAVskExecutableContext@@@Z @ 104 NONAME ; void skInterpreter::executeStringExternalParams(class skString const &, class skiExecutable *, class skStringList &, class skString const &, class skRValueArray &, class skRValue &, class skMethodDefNode * *, class skExecutableContext &)
	?findChild@skTreeNode@@QBEPAV1@ABVTDesC16@@@Z @ 105 NONAME ; class skTreeNode * skTreeNode::findChild(class TDesC16 const &) const
	?findChild@skTreeNode@@QBEPAV1@ABVskString@@0@Z @ 106 NONAME ; class skTreeNode * skTreeNode::findChild(class skString const &, class skString const &) const
	?findChild@skTreeNode@@QBEPAV1@ABVskString@@@Z @ 107 NONAME ; class skTreeNode * skTreeNode::findChild(class skString const &) const
	?findChildData@skTreeNode@@QBE?AVskString@@ABV2@0@Z @ 108 NONAME ; class skString skTreeNode::findChildData(class skString const &, class skString const &) const
	?findChildData@skTreeNode@@QBE?AVskString@@ABVTDesC16@@@Z @ 109 NONAME ; class skString skTreeNode::findChildData(class TDesC16 const &) const
	?findChildFloatData@skTreeNode@@QBEMABVskString@@M@Z @ 110 NONAME ; float skTreeNode::findChildFloatData(class skString const &, float) const
	?findChildIntData@skTreeNode@@QBEHABVTDesC16@@H@Z @ 111 NONAME ; int skTreeNode::findChildIntData(class TDesC16 const &, int) const
	?findChildIntData@skTreeNode@@QBEHABVskString@@H@Z @ 112 NONAME ; int skTreeNode::findChildIntData(class skString const &, int) const
	?findChildboolData@skTreeNode@@QBE_NABVskString@@_N@Z @ 113 NONAME ; bool skTreeNode::findChildboolData(class skString const &, bool) const
	?findGlobalVariable@skInterpreter@@QAE_NABVskString@@AAVskRValue@@@Z @ 114 NONAME ; bool skInterpreter::findGlobalVariable(class skString const &, class skRValue &)
	?findItem@skTreeNodeList@@QBEPAVskTreeNode@@ABVskString@@0@Z @ 115 NONAME ; class skTreeNode * skTreeNodeList::findItem(class skString const &, class skString const &) const
	?findItem@skTreeNodeList@@QBEPAVskTreeNode@@ABVskString@@@Z @ 116 NONAME ; class skTreeNode * skTreeNodeList::findItem(class skString const &) const
	?floatData@skTreeNode@@QAEXM@Z @ 117 NONAME ; void skTreeNode::floatData(float)
	?floatData@skTreeNode@@QBEMXZ @ 118 NONAME ; float skTreeNode::floatData(void) const
	?floatValue@skExecutable@@UBEMXZ @ 119 NONAME ; float skExecutable::floatValue(void) const
	?floatValue@skRValue@@QBEMXZ @ 120 NONAME ; float skRValue::floatValue(void) const
	?floatValue@skTreeNodeObject@@UBEMXZ @ 121 NONAME ; float skTreeNodeObject::floatValue(void) const
	?from@skString@@SA?AV1@G@Z @ 122 NONAME ; class skString skString::from(unsigned short)
	?from@skString@@SA?AV1@H@Z @ 123 NONAME ; class skString skString::from(int)
	?from@skString@@SA?AV1@I@Z @ 124 NONAME ; class skString skString::from(unsigned int)
	?from@skString@@SA?AV1@M@Z @ 125 NONAME ; class skString skString::from(float)
	?fromBuffer@skString@@SA?AV1@PAG@Z @ 126 NONAME ; class skString skString::fromBuffer(unsigned short *)
	?getAddIfNotPresent@skTreeNodeObject@@QAE_NXZ @ 127 NONAME ; bool skTreeNodeObject::getAddIfNotPresent(void)
	?getAttributes@skExecutable@@UAEXAAVskRValueTable@@@Z @ 128 NONAME ; void skExecutable::getAttributes(class skRValueTable &)
	?getGlobalVariables@skInterpreter@@QBEABVskRValueTable@@XZ @ 129 NONAME ; class skRValueTable const & skInterpreter::getGlobalVariables(void) const
	?getInstanceVariables@skExecutable@@UAEXAAVskRValueTable@@@Z @ 130 NONAME ; void skExecutable::getInstanceVariables(class skRValueTable &)
	?getInstanceVariables@skTreeNodeObject@@UAEXAAVskRValueTable@@@Z @ 131 NONAME ; void skTreeNodeObject::getInstanceVariables(class skRValueTable &)
	?getLocation@skTreeNodeObject@@QBE?AVskString@@XZ @ 132 NONAME ; class skString skTreeNodeObject::getLocation(void) const
	?getNode@skTreeNodeObject@@QAEPAVskTreeNode@@XZ @ 133 NONAME ; class skTreeNode * skTreeNodeObject::getNode(void)
	?getSource@skExecutable@@UAE?AVskString@@ABV2@@Z @ 134 NONAME ; class skString skExecutable::getSource(class skString const &)
	?getSource@skTreeNodeObject@@UAE?AVskString@@ABV2@@Z @ 135 NONAME ; class skString skTreeNodeObject::getSource(class skString const &)
	?getValue@skExecutable@@UAE_NABVskString@@0AAVskRValue@@@Z @ 136 NONAME ; bool skExecutable::getValue(class skString const &, class skString const &, class skRValue &)
	?getValue@skInterpreter@@UAE_NABVskString@@0AAVskRValue@@@Z @ 137 NONAME ; bool skInterpreter::getValue(class skString const &, class skString const &, class skRValue &)
	?getValue@skTreeNodeObject@@UAE_NABVskString@@0AAVskRValue@@@Z @ 138 NONAME ; bool skTreeNodeObject::getValue(class skString const &, class skString const &, class skRValue &)
	?getValueAt@skExecutable@@UAE_NABVskRValue@@ABVskString@@AAV2@@Z @ 139 NONAME ; bool skExecutable::getValueAt(class skRValue const &, class skString const &, class skRValue &)
	?getValueAt@skTreeNodeObject@@UAE_NABVskRValue@@ABVskString@@AAV2@@Z @ 140 NONAME ; bool skTreeNodeObject::getValueAt(class skRValue const &, class skString const &, class skRValue &)
	?hasMoreTokens@skStringTokenizer@@QAE_NXZ @ 141 NONAME ; bool skStringTokenizer::hasMoreTokens(void)
	?indexOf@skString@@QBEHABV1@@Z @ 142 NONAME ; int skString::indexOf(class skString const &) const
	?indexOf@skString@@QBEHG@Z @ 143 NONAME ; int skString::indexOf(unsigned short) const
	?indexOfLast@skString@@QBEHG@Z @ 144 NONAME ; int skString::indexOfLast(unsigned short) const
	?init@skInterpreter@@QAEXXZ @ 145 NONAME ; void skInterpreter::init(void)
	?init@skStringTokenizer@@QAEXABVskString@@0_N@Z @ 146 NONAME ; void skStringTokenizer::init(class skString const &, class skString const &, bool)
	?insertKeyAndValue@skSHashTable@@IAEXABVskString@@PAX@Z @ 147 NONAME ; void skSHashTable::insertKeyAndValue(class skString const &, void *)
	?intData@skTreeNode@@QAEXH@Z @ 148 NONAME ; void skTreeNode::intData(int)
	?intData@skTreeNode@@QBEHXZ @ 149 NONAME ; int skTreeNode::intData(void) const
	?intValue@skExecutable@@UBEHXZ @ 150 NONAME ; int skExecutable::intValue(void) const
	?intValue@skRValue@@QBEHXZ @ 151 NONAME ; int skRValue::intValue(void) const
	?intValue@skTreeNodeObject@@UBEHXZ @ 152 NONAME ; int skTreeNodeObject::intValue(void) const
	?literal@skString@@SA?AV1@PBG@Z @ 153 NONAME ; class skString skString::literal(unsigned short const *)
	?ltrim@skString@@QBE?AV1@XZ @ 154 NONAME ; class skString skString::ltrim(void) const
	?method@skExecutable@@UAE_NABVskString@@AAVskRValueArray@@AAVskRValue@@AAVskExecutableContext@@@Z @ 155 NONAME ; bool skExecutable::method(class skString const &, class skRValueArray &, class skRValue &, class skExecutableContext &)
	?method@skInterpreter@@UAE_NABVskString@@AAVskRValueArray@@AAVskRValue@@AAVskExecutableContext@@@Z @ 156 NONAME ; bool skInterpreter::method(class skString const &, class skRValueArray &, class skRValue &, class skExecutableContext &)
	?method@skTreeNodeObject@@UAE_NABVskString@@AAVskRValueArray@@AAVskRValue@@AAVskExecutableContext@@@Z @ 157 NONAME ; bool skTreeNodeObject::method(class skString const &, class skRValueArray &, class skRValue &, class skExecutableContext &)
	?moveItemsFrom@skTreeNode@@QAEXAAV1@@Z @ 158 NONAME ; void skTreeNode::moveItemsFrom(class skTreeNode &)
	?nextToken@skStringTokenizer@@QAE?AVskString@@ABV2@@Z @ 159 NONAME ; class skString skStringTokenizer::nextToken(class skString const &)
	?nextToken@skStringTokenizer@@QAE?AVskString@@XZ @ 160 NONAME ; class skString skStringTokenizer::nextToken(void)
	?nthChild@skTreeNode@@QBEPAV1@I@Z @ 161 NONAME ; class skTreeNode * skTreeNode::nthChild(unsigned int) const
	?nthChildData@skTreeNode@@QBE?AVskString@@I@Z @ 162 NONAME ; class skString skTreeNode::nthChildData(unsigned int) const
	?nthChildIntData@skTreeNode@@QBEHI@Z @ 163 NONAME ; int skTreeNode::nthChildIntData(unsigned int) const
	?nthElt@skTreeNodeList@@QBEPAVskTreeNode@@I@Z @ 164 NONAME ; class skTreeNode * skTreeNodeList::nthElt(unsigned int) const
	?numChildren@skTreeNode@@QBEIXZ @ 165 NONAME ; unsigned int skTreeNode::numChildren(void) const
	?obj@skRValue@@QBEPAVskiExecutable@@XZ @ 166 NONAME ; class skiExecutable * skRValue::obj(void) const
	?open@skInputFile@@QAEXABVTDesC16@@@Z @ 167 NONAME ; void skInputFile::open(class TDesC16 const &)
	?open@skInputFile@@QAEXABVskString@@@Z @ 168 NONAME ; void skInputFile::open(class skString const &)
	?parseExternalParams@skInterpreter@@QAEPAVskMethodDefNode@@ABVskString@@AAVskStringList@@0AAVskExecutableContext@@@Z @ 169 NONAME ; class skMethodDefNode * skInterpreter::parseExternalParams(class skString const &, class skStringList &, class skString const &, class skExecutableContext &)
	?parseString@skInterpreter@@QAEPAVskMethodDefNode@@ABVskString@@0AAVskExecutableContext@@@Z @ 170 NONAME ; class skMethodDefNode * skInterpreter::parseString(class skString const &, class skString const &, class skExecutableContext &)
	?prependChild@skTreeNode@@QAEXPAV1@@Z @ 171 NONAME ; void skTreeNode::prependChild(class skTreeNode *)
	?read@skTreeNode@@SAPAV1@ABVskString@@AAVskExecutableContext@@@Z @ 172 NONAME ; class skTreeNode * skTreeNode::read(class skString const &, class skExecutableContext &)
	?read@skTreeNodeReader@@QAEPAVskTreeNode@@AAVskExecutableContext@@@Z @ 173 NONAME ; class skTreeNode * skTreeNodeReader::read(class skExecutableContext &)
	?read@skTreeNodeReader@@QAEPAVskTreeNode@@PAVskInputSource@@ABVTDesC16@@AAVskExecutableContext@@@Z @ 174 NONAME ; class skTreeNode * skTreeNodeReader::read(class skInputSource *, class TDesC16 const &, class skExecutableContext &)
	?remove@skSHashTable@@QAEXABVskString@@@Z @ 175 NONAME ; void skSHashTable::remove(class skString const &)
	?removeChild@skTreeNode@@QAEXPAV1@@Z @ 176 NONAME ; void skTreeNode::removeChild(class skTreeNode *)
	?removeGlobalVariable@skInterpreter@@QAEXABVTDesC16@@@Z @ 177 NONAME ; void skInterpreter::removeGlobalVariable(class TDesC16 const &)
	?removeGlobalVariable@skInterpreter@@QAEXABVskString@@@Z @ 178 NONAME ; void skInterpreter::removeGlobalVariable(class skString const &)
	?removeInitialBlankLines@skString@@QBE?AV1@XZ @ 179 NONAME ; class skString skString::removeInitialBlankLines(void) const
	?replace@skString@@QBE?AV1@ABV1@0@Z @ 180 NONAME ; class skString skString::replace(class skString const &, class skString const &) const
	?replace@skString@@QBE?AV1@ABVTDesC16@@0@Z @ 181 NONAME ; class skString skString::replace(class TDesC16 const &, class TDesC16 const &) const
	?replace@skString@@QBE?AV1@PBG0@Z @ 182 NONAME ; class skString skString::replace(unsigned short const *, unsigned short const *) const
	?replaceInPlace@skString@@QAEXGG@Z @ 183 NONAME ; void skString::replaceInPlace(unsigned short, unsigned short)
	?reset@skTreeNodeListIterator@@QAEXXZ @ 184 NONAME ; void skTreeNodeListIterator::reset(void)
	?runtimeError@skInterpreter@@QAEXAAVskStackFrame@@ABVskString@@@Z @ 185 NONAME ; void skInterpreter::runtimeError(class skStackFrame &, class skString const &)
	?runtimeError@skInterpreter@@QAEXAAVskStackFrame@@PBG@Z @ 186 NONAME ; void skInterpreter::runtimeError(class skStackFrame &, unsigned short const *)
	?setAddIfNotPresent@skTreeNodeObject@@QAEX_N@Z @ 187 NONAME ; void skTreeNodeObject::setAddIfNotPresent(bool)
	?setChild@skTreeNode@@QAEXPAV1@@Z @ 188 NONAME ; void skTreeNode::setChild(class skTreeNode *)
	?setNode@skTreeNodeObject@@QAEXABVTDesC16@@PAVskTreeNode@@_N@Z @ 189 NONAME ; void skTreeNodeObject::setNode(class TDesC16 const &, class skTreeNode *, bool)
	?setNode@skTreeNodeObject@@QAEXABVskString@@PAVskTreeNode@@_N@Z @ 190 NONAME ; void skTreeNodeObject::setNode(class skString const &, class skTreeNode *, bool)
	?setStatementStepper@skInterpreter@@QAEXPAVskStatementStepper@@@Z @ 191 NONAME ; void skInterpreter::setStatementStepper(class skStatementStepper *)
	?setTraceCallback@skInterpreter@@QAEXPAVskTraceCallback@@@Z @ 192 NONAME ; void skInterpreter::setTraceCallback(class skTraceCallback *)
	?setValue@skExecutable@@UAE_NABVskString@@0ABVskRValue@@@Z @ 193 NONAME ; bool skExecutable::setValue(class skString const &, class skString const &, class skRValue const &)
	?setValue@skInterpreter@@UAE_NABVskString@@0ABVskRValue@@@Z @ 194 NONAME ; bool skInterpreter::setValue(class skString const &, class skString const &, class skRValue const &)
	?setValue@skTreeNodeObject@@UAE_NABVskString@@0ABVskRValue@@@Z @ 195 NONAME ; bool skTreeNodeObject::setValue(class skString const &, class skString const &, class skRValue const &)
	?setValueAt@skExecutable@@UAE_NABVskRValue@@ABVskString@@0@Z @ 196 NONAME ; bool skExecutable::setValueAt(class skRValue const &, class skString const &, class skRValue const &)
	?setValueAt@skTreeNodeObject@@UAE_NABVskRValue@@ABVskString@@0@Z @ 197 NONAME ; bool skTreeNodeObject::setValueAt(class skRValue const &, class skString const &, class skRValue const &)
	?str@skRValue@@QBE?AVskString@@XZ @ 198 NONAME ; class skString skRValue::str(void) const
	?strValue@skExecutable@@UBE?AVskString@@XZ @ 199 NONAME ; class skString skExecutable::strValue(void) const
	?strValue@skTreeNodeObject@@UBE?AVskString@@XZ @ 200 NONAME ; class skString skTreeNodeObject::strValue(void) const
	?substr@skString@@QBE?AV1@I@Z @ 201 NONAME ; class skString skString::substr(unsigned int) const
	?substr@skString@@QBE?AV1@II@Z @ 202 NONAME ; class skString skString::substr(unsigned int, unsigned int) const
	?to@skString@@QBEHXZ @ 203 NONAME ; int skString::to(void) const
	?toFloat@skString@@QBEMXZ @ 204 NONAME ; float skString::toFloat(void) const
	?toString@skStringBuffer@@QAE?AVskString@@XZ @ 205 NONAME ; class skString skStringBuffer::toString(void)
	?toStringCopy@skStringBuffer@@QBE?AVskString@@XZ @ 206 NONAME ; class skString skStringBuffer::toStringCopy(void) const
	?trace@skInterpreter@@QAEXABVskString@@@Z @ 207 NONAME ; void skInterpreter::trace(class skString const &)
	?trace@skInterpreter@@QAEXPBG@Z @ 208 NONAME ; void skInterpreter::trace(unsigned short const *)
	?trace@skTracer@@SAXABVskString@@@Z @ 209 NONAME ; void skTracer::trace(class skString const &)
	?trace@skTracer@@SAXPBG@Z @ 210 NONAME ; void skTracer::trace(unsigned short const *)
	?write@skOutputFile@@UAEXABVTDesC16@@@Z @ 211 NONAME ; void skOutputFile::write(class TDesC16 const &)
	?write@skOutputFile@@UAEXABVskString@@@Z @ 212 NONAME ; void skOutputFile::write(class skString const &)
	?write@skOutputString@@UAEXABVTDesC16@@@Z @ 213 NONAME ; void skOutputString::write(class TDesC16 const &)
	?write@skOutputString@@UAEXABVskString@@@Z @ 214 NONAME ; void skOutputString::write(class skString const &)
	?write@skTreeNode@@QBEXAAVskOutputDestination@@I_N@Z @ 215 NONAME ; void skTreeNode::write(class skOutputDestination &, unsigned int, bool) const
	?write@skTreeNode@@QBE_NABVskString@@@Z @ 216 NONAME ; bool skTreeNode::write(class skString const &) const
	?writeTabs@skTreeNode@@CAXAAVskOutputDestination@@H@Z @ 217 NONAME ; void skTreeNode::writeTabs(class skOutputDestination &, int)
	??4skRValue@@QAEAAV0@ABVskString@@@Z @ 218 NONAME ; class skRValue & skRValue::operator=(class skString const &)
	??4skRValue@@QAEAAV0@G@Z @ 219 NONAME ; class skRValue & skRValue::operator=(unsigned short)
	??4skRValue@@QAEAAV0@H@Z @ 220 NONAME ; class skRValue & skRValue::operator=(int)
	??4skRValue@@QAEAAV0@M@Z @ 221 NONAME ; class skRValue & skRValue::operator=(float)
	?findChildData@skTreeNode@@QBE?AVskString@@ABV2@@Z @ 222 NONAME ; class skString skTreeNode::findChildData(class skString const &) const

